; Function Attrs: mustprogress nofree norecurse nosync nounwind willreturn memory(argmem: read) uwtable
define internal range(i32 0, 2) i32 @_list_find_prec_by_ppid(ptr noundef readonly captures(none) %0, ptr noundef readonly captures(none) %1) #8 {
  %3 = load i8, ptr %0, align 8, !range !16, !noundef !17
  %4 = trunc nuw i8 %3 to i1
  br i1 %4, label %10, label %5

5:                                                ; preds = %2
  %6 = load i32, ptr %1, align 4
  %7 = getelementptr inbounds nuw i8, ptr %0, i64 20
  %8 = load i32, ptr %7, align 4
  %9 = icmp eq i32 %8, %6
  br i1 %9, label %11, label %10

10:                                               ; preds = %5, %2
  br label %11

11:                                               ; preds = %5, %10
  %.0 = phi i32 [ 0, %10 ], [ 1, %5 ]
  ret i32 %.0
}